; Function Attrs: nounwind uwtable
define internal ptr @sys__dump_tracelets(ptr readnone captures(none) %0, ptr noundef %1, i64 noundef %2, ptr noundef %3) #0 {
  %5 = alloca [1 x ptr], align 8
  call void @llvm.lifetime.start.p0(i64 8, ptr nonnull %5) #15
  %6 = icmp eq ptr %3, null
  %7 = icmp eq i64 %2, 1
  %or.cond3 = and i1 %7, %6
  %8 = icmp ne ptr %1, null
  %or.cond5 = and i1 %8, %or.cond3
  br i1 %or.cond5, label %.thread, label %9

9:                                                ; preds = %4
  %10 = call ptr @_PyArg_UnpackKeywords(ptr noundef %1, i64 noundef %2, ptr noundef null, ptr noundef %3, ptr noundef nonnull @sys__dump_tracelets._parser, i32 noundef 1, i32 noundef 1, i32 noundef 0, i32 noundef 0, ptr noundef nonnull %5) #15
  %.not = icmp eq ptr %10, null
  br i1 %.not, label %sys__dump_tracelets_impl.exit, label %.thread

.thread:                                          ; preds = %4, %9
  %11 = phi ptr [ %10, %9 ], [ %1, %4 ]
  %12 = load ptr, ptr %11, align 8, !tbaa !93
  %13 = call ptr @Py_fopen(ptr noundef %12, ptr noundef nonnull @.str.144) #15
  %14 = icmp eq ptr %13, null
  br i1 %14, label %sys__dump_tracelets_impl.exit, label %15

15:                                               ; preds = %.thread
  %16 = call i32 @_PyDumpExecutors(ptr noundef nonnull %13) #15
  %17 = call i32 @fclose(ptr noundef nonnull %13)
  %.not.i = icmp eq i32 %16, 0
  %_Py_NoneStruct..i = select i1 %.not.i, ptr @_Py_NoneStruct, ptr null
  br label %sys__dump_tracelets_impl.exit

sys__dump_tracelets_impl.exit:                    ; preds = %15, %.thread, %9
  %.0 = phi ptr [ null, %9 ], [ %_Py_NoneStruct..i, %15 ], [ null, %.thread ]
  call void @llvm.lifetime.end.p0(i64 8, ptr nonnull %5) #15
  ret ptr %.0
}